target datalayout = "e-m:e-p270:32:32-p271:32:32-p272:64:64-i64:64-i128:128-f80:128-n8:16:32:64-S128"
target triple = "x86_64-pc-linux-gnu"

@dt_util_localize_string.prefix = internal constant [7 x i8] c"_l10n_\00", align 1
@.str = private unnamed_addr constant [2 x i8] c"|\00", align 1
@.str.1 = private unnamed_addr constant [4 x i8] c" | \00", align 1

; Function Attrs: nounwind uwtable
define ptr @dt_util_localize_string(ptr noundef %0) #0 {
  %2 = alloca ptr, align 8
  %3 = alloca ptr, align 8
  store ptr %0, ptr %3, align 8, !tbaa !6
  %4 = load ptr, ptr %3, align 8, !tbaa !6
  %5 = icmp ne ptr %4, null
  br i1 %5, label %6, label %14

6:                                                ; preds = %1
  %7 = load ptr, ptr %3, align 8, !tbaa !6
  %8 = call i32 @strncmp(ptr noundef %7, ptr noundef @dt_util_localize_string.prefix, i64 noundef 6) #17
  %9 = icmp eq i32 %8, 0
  br i1 %9, label %10, label %14

10:                                               ; preds = %6
  %11 = load ptr, ptr %3, align 8, !tbaa !6
  %12 = getelementptr inbounds i8, ptr %11, i64 6
  %13 = call ptr @dcgettext(ptr noundef null, ptr noundef %12, i32 noundef 5) #18
  store ptr %13, ptr %2, align 8
  br label %16

14:                                               ; preds = %6, %1
  %15 = load ptr, ptr %3, align 8, !tbaa !6
  store ptr %15, ptr %2, align 8
  br label %16

16:                                               ; preds = %14, %10
  %17 = load ptr, ptr %2, align 8
  ret ptr %17
}

; Function Attrs: nounwind uwtable
define ptr @dt_util_localize_segmented_name(ptr noundef %0) #0 {
  %2 = alloca ptr, align 8
  %3 = alloca ptr, align 8
  %4 = alloca ptr, align 8
  %5 = alloca i64, align 8
  %6 = alloca i32, align 4
  %7 = alloca i64, align 8
  %8 = alloca i64, align 8
  %9 = alloca ptr, align 8
  %10 = alloca ptr, align 8
  %11 = alloca ptr, align 8
  %12 = alloca i32, align 4
  store ptr %0, ptr %2, align 8, !tbaa !6
  call void @llvm.lifetime.start.p0(i64 8, ptr %3) #18
  %13 = load ptr, ptr %2, align 8, !tbaa !6
  %14 = call ptr @g_strsplit(ptr noundef %13, ptr noundef @.str, i32 noundef 0)
  store ptr %14, ptr %3, align 8, !tbaa !11
  call void @llvm.lifetime.start.p0(i64 8, ptr %4) #18
  store ptr null, ptr %4, align 8, !tbaa !6
  %15 = load ptr, ptr %3, align 8, !tbaa !11
  %16 = icmp ne ptr %15, null
  br i1 %16, label %17, label %111

17:                                               ; preds = %1
  %18 = load ptr, ptr %3, align 8, !tbaa !11
  %19 = getelementptr inbounds ptr, ptr %18, i64 0
  %20 = load ptr, ptr %19, align 8, !tbaa !6
  %21 = icmp ne ptr %20, null
  br i1 %21, label %22, label %111

22:                                               ; preds = %17
  call void @llvm.lifetime.start.p0(i64 8, ptr %5) #18
  %23 = load ptr, ptr %3, align 8, !tbaa !11
  %24 = getelementptr inbounds ptr, ptr %23, i64 0
  %25 = load ptr, ptr %24, align 8, !tbaa !6
  %26 = call ptr @dt_util_localize_string(ptr noundef %25)
  %27 = call i64 @strlen(ptr noundef %26) #17
  %28 = add i64 1, %27
  store i64 %28, ptr %5, align 8, !tbaa !13
  call void @llvm.lifetime.start.p0(i64 4, ptr %6) #18
  store i32 1, ptr %6, align 4, !tbaa !15
  br label %29

29:                                               ; preds = %48, %22
  %30 = load ptr, ptr %3, align 8, !tbaa !11
  %31 = load i32, ptr %6, align 4, !tbaa !15
  %32 = sext i32 %31 to i64
  %33 = getelementptr inbounds ptr, ptr %30, i64 %32
  %34 = load ptr, ptr %33, align 8, !tbaa !6
  %35 = icmp ne ptr %34, null
  br i1 %35, label %37, label %36

36:                                               ; preds = %29
  call void @llvm.lifetime.end.p0(i64 4, ptr %6) #18
  br label %51

37:                                               ; preds = %29
  %38 = load ptr, ptr %3, align 8, !tbaa !11
  %39 = load i32, ptr %6, align 4, !tbaa !15
  %40 = sext i32 %39 to i64
  %41 = getelementptr inbounds ptr, ptr %38, i64 %40
  %42 = load ptr, ptr %41, align 8, !tbaa !6
  %43 = call ptr @dt_util_localize_string(ptr noundef %42)
  %44 = call i64 @strlen(ptr noundef %43) #17
  %45 = add i64 %44, 3
  %46 = load i64, ptr %5, align 8, !tbaa !13
  %47 = add i64 %46, %45
  store i64 %47, ptr %5, align 8, !tbaa !13
  br label %48

48:                                               ; preds = %37
  %49 = load i32, ptr %6, align 4, !tbaa !15
  %50 = add nsw i32 %49, 1
  store i32 %50, ptr %6, align 4, !tbaa !15
  br label %29

51:                                               ; preds = %36
  call void @llvm.lifetime.start.p0(i64 8, ptr %7) #18
  %52 = load i64, ptr %5, align 8, !tbaa !13
  store i64 %52, ptr %7, align 8, !tbaa !13
  call void @llvm.lifetime.start.p0(i64 8, ptr %8) #18
  store i64 1, ptr %8, align 8, !tbaa !13
  call void @llvm.lifetime.start.p0(i64 8, ptr %9) #18
  %53 = load i64, ptr %8, align 8, !tbaa !13
  %54 = icmp eq i64 %53, 1
  br i1 %54, label %55, label %58

55:                                               ; preds = %51
  %56 = load i64, ptr %7, align 8, !tbaa !13
  %57 = call noalias ptr @g_malloc0(i64 noundef %56) #19
  store ptr %57, ptr %9, align 8, !tbaa !17
  br label %79

58:                                               ; preds = %51
  %59 = load i64, ptr %7, align 8, !tbaa !13
  %60 = call i1 @llvm.is.constant.i64(i64 %59)
  br i1 %60, label %61, label %74

61:                                               ; preds = %58
  %62 = load i64, ptr %8, align 8, !tbaa !13
  %63 = icmp eq i64 %62, 0
  br i1 %63, label %69, label %64

64:                                               ; preds = %61
  %65 = load i64, ptr %7, align 8, !tbaa !13
  %66 = load i64, ptr %8, align 8, !tbaa !13
  %67 = udiv i64 -1, %66
  %68 = icmp ule i64 %65, %67
  br i1 %68, label %69, label %74

69:                                               ; preds = %64, %61
  %70 = load i64, ptr %7, align 8, !tbaa !13
  %71 = load i64, ptr %8, align 8, !tbaa !13
  %72 = mul i64 %70, %71
  %73 = call noalias ptr @g_malloc0(i64 noundef %72) #19
  store ptr %73, ptr %9, align 8, !tbaa !17
  br label %78

74:                                               ; preds = %64, %58
  %75 = load i64, ptr %7, align 8, !tbaa !13
  %76 = load i64, ptr %8, align 8, !tbaa !13
  %77 = call noalias ptr @g_malloc0_n(i64 noundef %75, i64 noundef %76) #20
  store ptr %77, ptr %9, align 8, !tbaa !17
  br label %78

78:                                               ; preds = %74, %69
  br label %79

79:                                               ; preds = %78, %55
  %80 = load ptr, ptr %9, align 8, !tbaa !17
  store ptr %80, ptr %10, align 8, !tbaa !17
  call void @llvm.lifetime.end.p0(i64 8, ptr %9) #18
  call void @llvm.lifetime.end.p0(i64 8, ptr %8) #18
  call void @llvm.lifetime.end.p0(i64 8, ptr %7) #18
  %81 = load ptr, ptr %10, align 8, !tbaa !17
  store ptr %81, ptr %4, align 8, !tbaa !6
  call void @llvm.lifetime.start.p0(i64 8, ptr %11) #18
  %82 = load ptr, ptr %4, align 8, !tbaa !6
  %83 = load ptr, ptr %3, align 8, !tbaa !11
  %84 = getelementptr inbounds ptr, ptr %83, i64 0
  %85 = load ptr, ptr %84, align 8, !tbaa !6
  %86 = call ptr @dt_util_localize_string(ptr noundef %85)
  %87 = call ptr @g_stpcpy(ptr noundef %82, ptr noundef %86)
  store ptr %87, ptr %11, align 8, !tbaa !6
  call void @llvm.lifetime.start.p0(i64 4, ptr %12) #18
  store i32 1, ptr %12, align 4, !tbaa !15
  br label %88

88:                                               ; preds = %107, %79
  %89 = load ptr, ptr %3, align 8, !tbaa !11
  %90 = load i32, ptr %12, align 4, !tbaa !15
  %91 = sext i32 %90 to i64
  %92 = getelementptr inbounds ptr, ptr %89, i64 %91
  %93 = load ptr, ptr %92, align 8, !tbaa !6
  %94 = icmp ne ptr %93, null
  br i1 %94, label %96, label %95

95:                                               ; preds = %88
  call void @llvm.lifetime.end.p0(i64 4, ptr %12) #18
  br label %110

96:                                               ; preds = %88
  %97 = load ptr, ptr %11, align 8, !tbaa !6
  %98 = call ptr @g_stpcpy(ptr noundef %97, ptr noundef @.str.1)
  store ptr %98, ptr %11, align 8, !tbaa !6
  %99 = load ptr, ptr %11, align 8, !tbaa !6
  %100 = load ptr, ptr %3, align 8, !tbaa !11
  %101 = load i32, ptr %12, align 4, !tbaa !15
  %102 = sext i32 %101 to i64
  %103 = getelementptr inbounds ptr, ptr %100, i64 %102
  %104 = load ptr, ptr %103, align 8, !tbaa !6
  %105 = call ptr @dt_util_localize_string(ptr noundef %104)
  %106 = call ptr @g_stpcpy(ptr noundef %99, ptr noundef %105)
  store ptr %106, ptr %11, align 8, !tbaa !6
  br label %107

107:                                              ; preds = %96
  %108 = load i32, ptr %12, align 4, !tbaa !15
  %109 = add nsw i32 %108, 1
  store i32 %109, ptr %12, align 4, !tbaa !15
  br label %88

110:                                              ; preds = %95
  call void @llvm.lifetime.end.p0(i64 8, ptr %11) #18
  call void @llvm.lifetime.end.p0(i64 8, ptr %5) #18
  br label %111

111:                                              ; preds = %110, %17, %1
  %112 = load ptr, ptr %3, align 8, !tbaa !11
  call void @g_strfreev(ptr noundef %112)
  %113 = load ptr, ptr %4, align 8, !tbaa !6
  call void @llvm.lifetime.end.p0(i64 8, ptr %4) #18
  call void @llvm.lifetime.end.p0(i64 8, ptr %3) #18
  ret ptr %113
}