; Function Attrs: nounwind uwtable
define ptr @dt_util_localize_segmented_name(ptr noundef %0) local_unnamed_addr #0 {
  %2 = tail call ptr @g_strsplit(ptr noundef %0, ptr noundef nonnull @.str, i32 noundef 0) #27
  %.not = icmp eq ptr %2, null
  br i1 %.not, label %.loopexit, label %3

3:                                                ; preds = %1
  %4 = load ptr, ptr %2, align 8, !tbaa !6
  %.not41 = icmp eq ptr %4, null
  br i1 %.not41, label %.loopexit, label %5

5:                                                ; preds = %3
  %6 = tail call i32 @strncmp(ptr noundef nonnull dereferenceable(1) %4, ptr noundef nonnull dereferenceable(7) @dt_util_localize_string.prefix, i64 noundef 6) #26
  %7 = icmp eq i32 %6, 0
  br i1 %7, label %8, label %dt_util_localize_string.exit

8:                                                ; preds = %5
  %9 = getelementptr inbounds nuw i8, ptr %4, i64 6
  %10 = tail call ptr @dcgettext(ptr noundef null, ptr noundef nonnull %9, i32 noundef 5) #27
  br label %dt_util_localize_string.exit

dt_util_localize_string.exit:                     ; preds = %5, %8
  %.0.i = phi ptr [ %10, %8 ], [ %4, %5 ]
  %11 = tail call i64 @strlen(ptr noundef nonnull dereferenceable(1) %.0.i) #26
  %12 = add i64 %11, 1
  %13 = getelementptr inbounds nuw i8, ptr %2, i64 8
  %14 = load ptr, ptr %13, align 8, !tbaa !6
  %.not4253 = icmp eq ptr %14, null
  br i1 %.not4253, label %._crit_edge, label %.lr.ph

.lr.ph:                                           ; preds = %dt_util_localize_string.exit, %dt_util_localize_string.exit46
  %indvars.iv = phi i64 [ %indvars.iv.next, %dt_util_localize_string.exit46 ], [ 1, %dt_util_localize_string.exit ]
  %15 = phi ptr [ %25, %dt_util_localize_string.exit46 ], [ %14, %dt_util_localize_string.exit ]
  %.03655 = phi i64 [ %23, %dt_util_localize_string.exit46 ], [ %12, %dt_util_localize_string.exit ]
  %16 = tail call i32 @strncmp(ptr noundef nonnull dereferenceable(1) %15, ptr noundef nonnull dereferenceable(7) @dt_util_localize_string.prefix, i64 noundef 6) #26
  %17 = icmp eq i32 %16, 0
  br i1 %17, label %18, label %dt_util_localize_string.exit46

18:                                               ; preds = %.lr.ph
  %19 = getelementptr inbounds nuw i8, ptr %15, i64 6
  %20 = tail call ptr @dcgettext(ptr noundef null, ptr noundef nonnull %19, i32 noundef 5) #27
  br label %dt_util_localize_string.exit46

dt_util_localize_string.exit46:                   ; preds = %.lr.ph, %18
  %.0.i45 = phi ptr [ %20, %18 ], [ %15, %.lr.ph ]
  %21 = tail call i64 @strlen(ptr noundef nonnull dereferenceable(1) %.0.i45) #26
  %22 = add i64 %.03655, 3
  %23 = add i64 %22, %21
  %indvars.iv.next = add nuw nsw i64 %indvars.iv, 1
  %24 = getelementptr inbounds nuw ptr, ptr %2, i64 %indvars.iv.next
  %25 = load ptr, ptr %24, align 8, !tbaa !6
  %.not42 = icmp eq ptr %25, null
  br i1 %.not42, label %._crit_edge, label %.lr.ph

._crit_edge:                                      ; preds = %dt_util_localize_string.exit46, %dt_util_localize_string.exit
  %.036.lcssa = phi i64 [ %12, %dt_util_localize_string.exit ], [ %23, %dt_util_localize_string.exit46 ]
  %26 = tail call noalias ptr @g_malloc0(i64 noundef %.036.lcssa) #28
  %27 = load ptr, ptr %2, align 8, !tbaa !6
  %.not.i47 = icmp eq ptr %27, null
  br i1 %.not.i47, label %dt_util_localize_string.exit49, label %28

28:                                               ; preds = %._crit_edge
  %29 = tail call i32 @strncmp(ptr noundef nonnull dereferenceable(1) %27, ptr noundef nonnull dereferenceable(7) @dt_util_localize_string.prefix, i64 noundef 6) #26
  %30 = icmp eq i32 %29, 0
  br i1 %30, label %31, label %dt_util_localize_string.exit49

31:                                               ; preds = %28
  %32 = getelementptr inbounds nuw i8, ptr %27, i64 6
  %33 = tail call ptr @dcgettext(ptr noundef null, ptr noundef nonnull %32, i32 noundef 5) #27
  br label %dt_util_localize_string.exit49

dt_util_localize_string.exit49:                   ; preds = %._crit_edge, %28, %31
  %.0.i48 = phi ptr [ %33, %31 ], [ %27, %28 ], [ null, %._crit_edge ]
  %34 = tail call ptr @g_stpcpy(ptr noundef %26, ptr noundef %.0.i48) #27
  %35 = load ptr, ptr %13, align 8, !tbaa !6
  %.not4356 = icmp eq ptr %35, null
  br i1 %.not4356, label %.loopexit, label %.lr.ph59

.lr.ph59:                                         ; preds = %dt_util_localize_string.exit49, %dt_util_localize_string.exit52
  %indvars.iv61 = phi i64 [ %indvars.iv.next62, %dt_util_localize_string.exit52 ], [ 1, %dt_util_localize_string.exit49 ]
  %36 = phi ptr [ %46, %dt_util_localize_string.exit52 ], [ %13, %dt_util_localize_string.exit49 ]
  %.03357 = phi ptr [ %45, %dt_util_localize_string.exit52 ], [ %34, %dt_util_localize_string.exit49 ]
  %37 = tail call ptr @g_stpcpy(ptr noundef %.03357, ptr noundef nonnull @.str.1) #27
  %38 = load ptr, ptr %36, align 8, !tbaa !6
  %.not.i50 = icmp eq ptr %38, null
  br i1 %.not.i50, label %dt_util_localize_string.exit52, label %39

39:                                               ; preds = %.lr.ph59
  %40 = tail call i32 @strncmp(ptr noundef nonnull dereferenceable(1) %38, ptr noundef nonnull dereferenceable(7) @dt_util_localize_string.prefix, i64 noundef 6) #26
  %41 = icmp eq i32 %40, 0
  br i1 %41, label %42, label %dt_util_localize_string.exit52

42:                                               ; preds = %39
  %43 = getelementptr inbounds nuw i8, ptr %38, i64 6
  %44 = tail call ptr @dcgettext(ptr noundef null, ptr noundef nonnull %43, i32 noundef 5) #27
  br label %dt_util_localize_string.exit52

dt_util_localize_string.exit52:                   ; preds = %.lr.ph59, %39, %42
  %.0.i51 = phi ptr [ %44, %42 ], [ %38, %39 ], [ null, %.lr.ph59 ]
  %45 = tail call ptr @g_stpcpy(ptr noundef %37, ptr noundef %.0.i51) #27
  %indvars.iv.next62 = add nuw nsw i64 %indvars.iv61, 1
  %46 = getelementptr inbounds nuw ptr, ptr %2, i64 %indvars.iv.next62
  %47 = load ptr, ptr %46, align 8, !tbaa !6
  %.not43 = icmp eq ptr %47, null
  br i1 %.not43, label %.loopexit, label %.lr.ph59

.loopexit:                                        ; preds = %dt_util_localize_string.exit52, %dt_util_localize_string.exit49, %3, %1
  %.034 = phi ptr [ null, %3 ], [ null, %1 ], [ %26, %dt_util_localize_string.exit49 ], [ %26, %dt_util_localize_string.exit52 ]
  tail call void @g_strfreev(ptr noundef %2) #27
  ret ptr %.034
}